target datalayout = "e-m:e-p270:32:32-p271:32:32-p272:64:64-i64:64-i128:128-f80:128-n8:16:32:64-S128"
target triple = "x86_64-pc-linux-gnu"

@.str = private unnamed_addr constant [46 x i8] c"../qemu/tests/qtest/libqos/virtio-9p-client.c\00", align 1
@__func__.v9fs_string_size = private unnamed_addr constant [17 x i8] c"v9fs_string_size\00", align 1
@.str.1 = private unnamed_addr constant [22 x i8] c"len <= UINT16_MAX - 2\00", align 1
@.str.2 = private unnamed_addr constant [3 x i8] c"<=\00", align 1

; Function Attrs: nounwind sspstrong uwtable
define dso_local zeroext i16 @v9fs_string_size(ptr noundef %0) #0 {
  %2 = alloca ptr, align 8
  %3 = alloca i64, align 8
  %4 = alloca i64, align 8
  %5 = alloca i64, align 8
  store ptr %0, ptr %2, align 8
  call void @llvm.lifetime.start.p0(i64 8, ptr %3) #13
  %6 = load ptr, ptr %2, align 8
  %7 = call i64 @strlen(ptr noundef %6) #14
  store i64 %7, ptr %3, align 8
  br label %8

8:                                                ; preds = %1
  call void @llvm.lifetime.start.p0(i64 8, ptr %4) #13
  %9 = load i64, ptr %3, align 8
  store i64 %9, ptr %4, align 8
  call void @llvm.lifetime.start.p0(i64 8, ptr %5) #13
  store i64 65533, ptr %5, align 8
  %10 = load i64, ptr %4, align 8
  %11 = load i64, ptr %5, align 8
  %12 = icmp sle i64 %10, %11
  br i1 %12, label %13, label %14

13:                                               ; preds = %8
  br label %19

14:                                               ; preds = %8
  %15 = load i64, ptr %4, align 8
  %16 = sitofp i64 %15 to x86_fp80
  %17 = load i64, ptr %5, align 8
  %18 = sitofp i64 %17 to x86_fp80
  call void @g_assertion_message_cmpnum(ptr noundef null, ptr noundef @.str, i32 noundef 151, ptr noundef @__func__.v9fs_string_size, ptr noundef @.str.1, x86_fp80 noundef %16, ptr noundef @.str.2, x86_fp80 noundef %18, i8 noundef signext 105)
  br label %19

19:                                               ; preds = %14, %13
  call void @llvm.lifetime.end.p0(i64 8, ptr %5) #13
  call void @llvm.lifetime.end.p0(i64 8, ptr %4) #13
  br label %20

20:                                               ; preds = %19
  br label %21

21:                                               ; preds = %20
  %22 = load i64, ptr %3, align 8
  %23 = add i64 2, %22
  %24 = trunc i64 %23 to i16
  call void @llvm.lifetime.end.p0(i64 8, ptr %3) #13
  ret i16 %24
}