; Function Attrs: nounwind sspstrong uwtable
define dso_local zeroext i16 @v9fs_string_size(ptr noundef readonly captures(none) %0) local_unnamed_addr #1 {
  %2 = tail call i64 @strlen(ptr noundef nonnull dereferenceable(1) %0) #15
  %3 = icmp slt i64 %2, 65534
  br i1 %3, label %6, label %4

4:                                                ; preds = %1
  %5 = uitofp nneg i64 %2 to x86_fp80
  tail call void @g_assertion_message_cmpnum(ptr noundef null, ptr noundef nonnull @.str, i32 noundef 151, ptr noundef nonnull @__func__.v9fs_string_size, ptr noundef nonnull @.str.1, x86_fp80 noundef %5, ptr noundef nonnull @.str.2, x86_fp80 noundef 0xK400EFFFD000000000000, i8 noundef signext 105) #14
  br label %6

6:                                                ; preds = %1, %4
  %7 = trunc i64 %2 to i16
  %8 = add i16 %7, 2
  ret i16 %8
}